target datalayout = "e-m:e-p270:32:32-p271:32:32-p272:64:64-i64:64-i128:128-f80:128-n8:16:32:64-S128"
target triple = "x86_64-pc-linux-gnu"

%struct.cmMessageMetadata = type <{ ptr, i32, [4 x i8] }>

; Function Attrs: inlinehint mustprogress nounwind uwtable
define linkonce_odr dso_local void @_ZN17cmMessageMetadataC2Ev(ptr noundef nonnull align 8 dereferenceable(12) %0) unnamed_addr #8 comdat align 2 {
  %2 = alloca ptr, align 8
  store ptr %0, ptr %2, align 8, !tbaa !68
  %3 = load ptr, ptr %2, align 8
  %4 = getelementptr inbounds nuw %struct.cmMessageMetadata, ptr %3, i32 0, i32 0
  store ptr null, ptr %4, align 8, !tbaa !63
  %5 = getelementptr inbounds nuw %struct.cmMessageMetadata, ptr %3, i32 0, i32 1
  store i32 0, ptr %5, align 8, !tbaa !70
  ret void
}

; Function Attrs: mustprogress uwtable
define dso_local void @_ZN13cmSystemTools7MessageERKNSt7__cxx1112basic_stringIcSt11char_traitsIcESaIcEEEPKc(ptr noundef nonnull align 8 dereferenceable(32) %0, ptr noundef %1) #6 align 2 {
  %3 = alloca ptr, align 8
  %4 = alloca ptr, align 8
  %5 = alloca %struct.cmMessageMetadata, align 8
  store ptr %0, ptr %3, align 8, !tbaa !24
  store ptr %1, ptr %4, align 8, !tbaa !33
  call void @llvm.lifetime.start.p0(i64 16, ptr %5) #3
  call void @_ZN17cmMessageMetadataC2Ev(ptr noundef nonnull align 8 dereferenceable(12) %5) #3
  %6 = load ptr, ptr %4, align 8, !tbaa !33
  %7 = getelementptr inbounds nuw %struct.cmMessageMetadata, ptr %5, i32 0, i32 0
  store ptr %6, ptr %7, align 8, !tbaa !63
  %8 = load ptr, ptr %3, align 8, !tbaa !24
  call void @_ZN13cmSystemTools7MessageERKNSt7__cxx1112basic_stringIcSt11char_traitsIcESaIcEEERK17cmMessageMetadata(ptr noundef nonnull align 8 dereferenceable(32) %8, ptr noundef nonnull align 8 dereferenceable(12) %5)
  call void @llvm.lifetime.end.p0(i64 16, ptr %5) #3
  ret void
}