; Function Attrs: mustprogress uwtable
define dso_local void @_ZN13cmSystemTools7MessageERKNSt7__cxx1112basic_stringIcSt11char_traitsIcESaIcEEEPKc(ptr noundef nonnull align 8 dereferenceable(32) %0, ptr noundef %1) local_unnamed_addr #3 align 2 {
  %3 = alloca %struct.cmMessageMetadata, align 8
  call void @llvm.lifetime.start.p0(i64 16, ptr nonnull %3) #37
  %4 = getelementptr inbounds nuw i8, ptr %3, i64 8
  store i32 0, ptr %4, align 8, !tbaa !55
  store ptr %1, ptr %3, align 8, !tbaa !57
  call void @_ZN13cmSystemTools7MessageERKNSt7__cxx1112basic_stringIcSt11char_traitsIcESaIcEEERK17cmMessageMetadata(ptr noundef nonnull align 8 dereferenceable(32) %0, ptr noundef nonnull align 8 dereferenceable(12) %3)
  call void @llvm.lifetime.end.p0(i64 16, ptr nonnull %3) #37
  ret void
}